target datalayout = "e-m:e-p270:32:32-p271:32:32-p272:64:64-i64:64-i128:128-f80:128-n8:16:32:64-S128"
target triple = "x86_64-pc-linux-gnu"

%struct._zval_struct = type { %union._zend_value, %union.anon.0, %union.anon.3 }
%union._zend_value = type { i64 }
%union.anon.0 = type { i32 }
%union.anon.3 = type { i32 }
%struct._zend_refcounted_h = type { i32, %union.anon }
%union.anon = type { i32 }
%struct._php_random_status_state_pcgoneseq128xslrr64 = type { i128 }
%struct._zend_string = type { %struct._zend_refcounted_h, i64, i64, [1 x i8] }

; Function Attrs: nounwind uwtable
define internal i64 @php_random_uint128_lo(i64 noundef %0, i64 noundef %1) #0 {
  %3 = alloca i128, align 16
  %4 = alloca i128, align 16
  %5 = getelementptr inbounds { i64, i64 }, ptr %3, i32 0, i32 0
  store i64 %0, ptr %5, align 16
  %6 = getelementptr inbounds { i64, i64 }, ptr %3, i32 0, i32 1
  store i64 %1, ptr %6, align 8
  %7 = load i128, ptr %3, align 16
  store i128 %7, ptr %4, align 16
  %8 = load i128, ptr %4, align 16
  %9 = trunc i128 %8 to i64
  ret i64 %9
}

; Function Attrs: nounwind uwtable
define internal i64 @php_random_uint128_hi(i64 noundef %0, i64 noundef %1) #0 {
  %3 = alloca i128, align 16
  %4 = alloca i128, align 16
  %5 = getelementptr inbounds { i64, i64 }, ptr %3, i32 0, i32 0
  store i64 %0, ptr %5, align 16
  %6 = getelementptr inbounds { i64, i64 }, ptr %3, i32 0, i32 1
  store i64 %1, ptr %6, align 8
  %7 = load i128, ptr %3, align 16
  store i128 %7, ptr %4, align 16
  %8 = load i128, ptr %4, align 16
  %9 = lshr i128 %8, 64
  %10 = trunc i128 %9 to i64
  ret i64 %10
}

; Function Attrs: nounwind uwtable
define internal zeroext i1 @serialize(ptr noundef %0, ptr noundef %1) #0 {
  %3 = alloca i32, align 4
  %4 = alloca i32, align 4
  %5 = alloca ptr, align 8
  %6 = alloca ptr, align 8
  %7 = alloca ptr, align 8
  %8 = alloca i64, align 8
  %9 = alloca %struct._zval_struct, align 8
  %10 = alloca i128, align 16
  %11 = alloca ptr, align 8
  %12 = alloca ptr, align 8
  %13 = alloca i128, align 16
  %14 = alloca ptr, align 8
  %15 = alloca ptr, align 8
  store ptr %0, ptr %5, align 8
  store ptr %1, ptr %6, align 8
  %16 = load ptr, ptr %5, align 8
  store ptr %16, ptr %7, align 8
  %17 = load ptr, ptr %7, align 8
  %18 = getelementptr inbounds %struct._php_random_status_state_pcgoneseq128xslrr64, ptr %17, i32 0, i32 0
  %19 = load i128, ptr %18, align 16
  store i128 %19, ptr %10, align 16
  %20 = getelementptr inbounds { i64, i64 }, ptr %10, i32 0, i32 0
  %21 = load i64, ptr %20, align 16
  %22 = getelementptr inbounds { i64, i64 }, ptr %10, i32 0, i32 1
  %23 = load i64, ptr %22, align 8
  %24 = call i64 @php_random_uint128_hi(i64 noundef %21, i64 noundef %23)
  store i64 %24, ptr %8, align 8
  br label %25

25:                                               ; preds = %2
  store ptr %9, ptr %11, align 8
  %26 = call ptr @php_random_bin2hex_le(ptr noundef %8, i64 noundef 8)
  store ptr %26, ptr %12, align 8
  %27 = load ptr, ptr %12, align 8
  %28 = load ptr, ptr %11, align 8
  %29 = getelementptr inbounds %struct._zval_struct, ptr %28, i32 0, i32 0
  store ptr %27, ptr %29, align 8
  %30 = load ptr, ptr %12, align 8
  %31 = getelementptr inbounds %struct._zend_string, ptr %30, i32 0, i32 0
  %32 = getelementptr inbounds %struct._zend_refcounted_h, ptr %31, i32 0, i32 1
  %33 = load i32, ptr %32, align 4
  store i32 %33, ptr %3, align 4
  %34 = load i32, ptr %3, align 4
  %35 = and i32 %34, 1008
  %36 = and i32 %35, 64
  %37 = icmp ne i32 %36, 0
  %38 = select i1 %37, i32 6, i32 262
  %39 = load ptr, ptr %11, align 8
  %40 = getelementptr inbounds %struct._zval_struct, ptr %39, i32 0, i32 1
  store i32 %38, ptr %40, align 8
  br label %41

41:                                               ; preds = %25
  %42 = load ptr, ptr %6, align 8
  %43 = call ptr @zend_hash_next_index_insert(ptr noundef %42, ptr noundef %9)
  %44 = load ptr, ptr %7, align 8
  %45 = getelementptr inbounds %struct._php_random_status_state_pcgoneseq128xslrr64, ptr %44, i32 0, i32 0
  %46 = load i128, ptr %45, align 16
  store i128 %46, ptr %13, align 16
  %47 = getelementptr inbounds { i64, i64 }, ptr %13, i32 0, i32 0
  %48 = load i64, ptr %47, align 16
  %49 = getelementptr inbounds { i64, i64 }, ptr %13, i32 0, i32 1
  %50 = load i64, ptr %49, align 8
  %51 = call i64 @php_random_uint128_lo(i64 noundef %48, i64 noundef %50)
  store i64 %51, ptr %8, align 8
  br label %52

52:                                               ; preds = %41
  store ptr %9, ptr %14, align 8
  %53 = call ptr @php_random_bin2hex_le(ptr noundef %8, i64 noundef 8)
  store ptr %53, ptr %15, align 8
  %54 = load ptr, ptr %15, align 8
  %55 = load ptr, ptr %14, align 8
  %56 = getelementptr inbounds %struct._zval_struct, ptr %55, i32 0, i32 0
  store ptr %54, ptr %56, align 8
  %57 = load ptr, ptr %15, align 8
  %58 = getelementptr inbounds %struct._zend_string, ptr %57, i32 0, i32 0
  %59 = getelementptr inbounds %struct._zend_refcounted_h, ptr %58, i32 0, i32 1
  %60 = load i32, ptr %59, align 4
  store i32 %60, ptr %4, align 4
  %61 = load i32, ptr %4, align 4
  %62 = and i32 %61, 1008
  %63 = and i32 %62, 64
  %64 = icmp ne i32 %63, 0
  %65 = select i1 %64, i32 6, i32 262
  %66 = load ptr, ptr %14, align 8
  %67 = getelementptr inbounds %struct._zval_struct, ptr %66, i32 0, i32 1
  store i32 %65, ptr %67, align 8
  br label %68

68:                                               ; preds = %52
  %69 = load ptr, ptr %6, align 8
  %70 = call ptr @zend_hash_next_index_insert(ptr noundef %69, ptr noundef %9)
  ret i1 true
}