; Function Attrs: nounwind uwtable
define internal noundef zeroext i1 @serialize(ptr nocapture noundef readonly %0, ptr noundef %1) #2 {
  %3 = alloca i64, align 8
  %4 = alloca %struct._zval_struct, align 8
  %5 = load i128, ptr %0, align 16
  %.sroa.29.0.extract.shift = lshr i128 %5, 64
  %.sroa.29.0.extract.trunc = trunc i128 %.sroa.29.0.extract.shift to i64
  store i64 %.sroa.29.0.extract.trunc, ptr %3, align 8
  %6 = call ptr @php_random_bin2hex_le(ptr noundef nonnull %3, i64 noundef 8) #7
  store ptr %6, ptr %4, align 8
  %7 = getelementptr inbounds i8, ptr %6, i64 4
  %8 = load i32, ptr %7, align 4
  %9 = and i32 %8, 64
  %.not = icmp eq i32 %9, 0
  %10 = select i1 %.not, i32 262, i32 6
  %11 = getelementptr inbounds i8, ptr %4, i64 8
  store i32 %10, ptr %11, align 8
  %12 = call ptr @zend_hash_next_index_insert(ptr noundef %1, ptr noundef nonnull %4) #7
  %13 = load i128, ptr %0, align 16
  %.sroa.0.0.extract.trunc = trunc i128 %13 to i64
  store i64 %.sroa.0.0.extract.trunc, ptr %3, align 8
  %14 = call ptr @php_random_bin2hex_le(ptr noundef nonnull %3, i64 noundef 8) #7
  store ptr %14, ptr %4, align 8
  %15 = getelementptr inbounds i8, ptr %14, i64 4
  %16 = load i32, ptr %15, align 4
  %17 = and i32 %16, 64
  %.not16 = icmp eq i32 %17, 0
  %18 = select i1 %.not16, i32 262, i32 6
  store i32 %18, ptr %11, align 8
  %19 = call ptr @zend_hash_next_index_insert(ptr noundef %1, ptr noundef nonnull %4) #7
  ret i1 true
}